; Function Attrs: mustprogress nounwind uwtable
define internal noundef zeroext i1 @"_ZNSt17_Function_handlerIFbRKN19cmCMakePresetsGraph13PackagePresetEEZ4mainE3$_0E9_M_invokeERKSt9_Any_dataS3_"(ptr nocapture noundef nonnull readonly align 8 dereferenceable(16) %0, ptr nocapture noundef nonnull readonly align 8 dereferenceable(520) %1) #4 align 2 {
  %.val = load ptr, ptr %0, align 8
  %3 = getelementptr inbounds i8, ptr %1, i64 256
  %.val2 = load ptr, ptr %3, align 8
  %4 = getelementptr inbounds i8, ptr %1, i64 264
  %.val3 = load ptr, ptr %4, align 8
  %5 = tail call fastcc noundef zeroext i1 @"_ZZ4mainENK3$_0clERKN19cmCMakePresetsGraph13PackagePresetE"(ptr %.val, ptr %.val2, ptr %.val3)
  ret i1 %5
}